target datalayout = "e-m:e-p270:32:32-p271:32:32-p272:64:64-i64:64-i128:128-f80:128-n8:16:32:64-S128"
target triple = "x86_64-pc-linux-gnu"

%struct.PortalData = type { ptr, ptr, ptr, ptr, ptr, i32, i32, i32, ptr, i32, %struct.QueryCompletion, ptr, ptr, ptr, ptr, i32, i32, i32, i8, i8, ptr, ptr, ptr, ptr, ptr, ptr, ptr, i8, i8, i64, i64, i8 }
%struct.QueryCompletion = type { i32, i64 }

@.str.3 = private unnamed_addr constant [12 x i8] c"portalmem.c\00", align 1
@.str.11 = private unnamed_addr constant [22 x i8] c"portal already pinned\00", align 1
@__func__.PinPortal = private unnamed_addr constant [10 x i8] c"PinPortal\00", align 1

; Function Attrs: nounwind uwtable
define dso_local void @PinPortal(ptr noundef %0) #0 {
  %2 = alloca ptr, align 8
  store ptr %0, ptr %2, align 8
  %3 = load ptr, ptr %2, align 8
  %4 = getelementptr inbounds nuw %struct.PortalData, ptr %3, i32 0, i32 18
  %5 = load i8, ptr %4, align 4, !range !4, !noundef !5
  %6 = trunc i8 %5 to i1
  br i1 %6, label %7, label %17

7:                                                ; preds = %1
  br label %8

8:                                                ; preds = %7
  br i1 true, label %9, label %11

9:                                                ; preds = %8
  %10 = call zeroext i1 @errstart_cold(i32 noundef 21, ptr noundef null) #7
  br i1 %10, label %13, label %15

11:                                               ; preds = %8
  %12 = call zeroext i1 @errstart(i32 noundef 21, ptr noundef null)
  br i1 %12, label %13, label %15

13:                                               ; preds = %11, %9
  %14 = call i32 (ptr, ...) @errmsg_internal(ptr noundef @.str.11)
  call void @errfinish(ptr noundef @.str.3, i32 noundef 374, ptr noundef @__func__.PinPortal)
  br label %15

15:                                               ; preds = %13, %11, %9
  unreachable

16:                                               ; No predecessors!
  br label %17

17:                                               ; preds = %16, %1
  %18 = load ptr, ptr %2, align 8
  %19 = getelementptr inbounds nuw %struct.PortalData, ptr %18, i32 0, i32 18
  store i8 1, ptr %19, align 4
  ret void
}