; Function Attrs: nounwind uwtable
define dso_local void @PinPortal(ptr noundef captures(none) %0) local_unnamed_addr #0 {
  %2 = getelementptr inbounds nuw i8, ptr %0, i64 132
  %3 = load i8, ptr %2, align 4, !range !4, !noundef !5
  %4 = trunc nuw i8 %3 to i1
  br i1 %4, label %5, label %8

5:                                                ; preds = %1
  %6 = tail call zeroext i1 @errstart_cold(i32 noundef 21, ptr noundef null) #9
  tail call void @llvm.assume(i1 %6)
  %7 = tail call i32 (ptr, ...) @errmsg_internal(ptr noundef nonnull @.str.11) #8
  tail call void @errfinish(ptr noundef nonnull @.str.3, i32 noundef 374, ptr noundef nonnull @__func__.PinPortal) #8
  unreachable

8:                                                ; preds = %1
  store i8 1, ptr %2, align 4
  ret void
}